; Function Attrs: nounwind uwtable
define void @open_libs() local_unnamed_addr #0 {
  %1 = tail call ptr @getenv(ptr noundef nonnull @.str) #9
  %2 = icmp eq ptr %1, null
  br i1 %2, label %3, label %6

3:                                                ; preds = %0
  %4 = tail call noalias dereferenceable_or_null(2) ptr @malloc(i64 noundef 2) #10
  store i8 46, ptr %4, align 1, !tbaa !3
  %5 = getelementptr inbounds nuw i8, ptr %4, i64 1
  store i8 0, ptr %5, align 1, !tbaa !3
  br label %11

6:                                                ; preds = %0
  %7 = tail call i64 @strlen(ptr noundef nonnull dereferenceable(1) %1) #11
  %8 = add i64 %7, 1
  %9 = tail call noalias ptr @malloc(i64 noundef %8) #10
  %10 = tail call ptr @strcpy(ptr noundef nonnull dereferenceable(1) %9, ptr noundef nonnull dereferenceable(1) %1) #9
  br label %11

11:                                               ; preds = %6, %3
  %.042 = phi ptr [ %4, %3 ], [ %9, %6 ]
  br label %.outer

.outer:                                           ; preds = %._crit_edge, %11
  %.040.ph = phi ptr [ %53, %._crit_edge ], [ %.042, %11 ]
  %.039.ph = phi i32 [ %.2.lcssa, %._crit_edge ], [ 0, %11 ]
  br label %12

12:                                               ; preds = %15, %.outer
  %13 = tail call ptr @strchr(ptr noundef nonnull dereferenceable(1) %.040.ph, i32 noundef 58) #11
  %.not = icmp eq ptr %13, null
  br i1 %.not, label %15, label %14

14:                                               ; preds = %12
  store i8 0, ptr %13, align 1, !tbaa !3
  br label %15

15:                                               ; preds = %14, %12
  %16 = tail call ptr @opendir(ptr noundef nonnull %.040.ph)
  %17 = icmp eq ptr %16, null
  br i1 %17, label %12, label %.preheader

.preheader:                                       ; preds = %15
  %18 = tail call ptr @readdir(ptr noundef nonnull %16) #9
  %.not4851 = icmp eq ptr %18, null
  br i1 %.not4851, label %._crit_edge, label %.lr.ph

.lr.ph:                                           ; preds = %.preheader, %50
  %19 = phi ptr [ %51, %50 ], [ %18, %.preheader ]
  %.252 = phi i32 [ %.3, %50 ], [ %.039.ph, %.preheader ]
  %20 = getelementptr inbounds nuw i8, ptr %19, i64 19
  %21 = tail call i32 @strncmp(ptr noundef nonnull dereferenceable(8) @.str.1, ptr noundef nonnull dereferenceable(1) %20, i64 noundef 7) #11
  %22 = icmp eq i32 %21, 0
  br i1 %22, label %23, label %50

23:                                               ; preds = %.lr.ph
  %24 = tail call i64 @strlen(ptr noundef nonnull dereferenceable(1) %20) #11
  %25 = getelementptr inbounds nuw i8, ptr %20, i64 %24
  %26 = getelementptr inbounds i8, ptr %25, i64 -3
  %27 = tail call i32 @strcmp(ptr noundef nonnull dereferenceable(4) @.str.2, ptr noundef nonnull dereferenceable(1) %26) #11
  %28 = icmp eq i32 %27, 0
  br i1 %28, label %29, label %50

29:                                               ; preds = %23
  %30 = icmp sgt i32 %.252, 255
  br i1 %30, label %31, label %33

31:                                               ; preds = %29
  %32 = tail call i32 (ptr, ...) @printf(ptr noundef nonnull dereferenceable(1) @.str.3, i32 noundef 256, ptr noundef nonnull %20)
  br label %50

33:                                               ; preds = %29
  %34 = tail call i64 @strlen(ptr noundef nonnull dereferenceable(1) %.040.ph) #11
  %35 = add i64 %24, 2
  %36 = add i64 %35, %34
  %37 = tail call noalias ptr @malloc(i64 noundef %36) #10
  %38 = tail call i32 (ptr, ptr, ...) @sprintf(ptr noundef nonnull dereferenceable(1) %37, ptr noundef nonnull dereferenceable(1) @.str.4, ptr noundef nonnull %.040.ph) #9
  %39 = tail call ptr @strcat(ptr noundef nonnull dereferenceable(1) %37, ptr noundef nonnull dereferenceable(1) %20) #9
  %40 = tail call ptr @dlopen(ptr noundef nonnull %37, i32 noundef 2) #9
  %41 = sext i32 %.252 to i64
  %42 = getelementptr inbounds [257 x ptr], ptr @libHandles, i64 0, i64 %41
  store ptr %40, ptr %42, align 8, !tbaa !6
  %.not49 = icmp eq ptr %40, null
  br i1 %.not49, label %46, label %43

43:                                               ; preds = %33
  %44 = tail call i32 (ptr, ...) @printf(ptr noundef nonnull dereferenceable(1) @.str.5, ptr noundef nonnull %37, i32 noundef %.252)
  %45 = add nsw i32 %.252, 1
  br label %49

46:                                               ; preds = %33
  %47 = tail call ptr @dlerror() #9
  %48 = tail call i32 (ptr, ...) @printf(ptr noundef nonnull dereferenceable(1) @.str.6, ptr noundef nonnull %37, ptr noundef %47)
  br label %49

49:                                               ; preds = %43, %46
  %.4 = phi i32 [ %45, %43 ], [ %.252, %46 ]
  tail call void @free(ptr noundef nonnull %37) #9
  br label %50

50:                                               ; preds = %31, %49, %23, %.lr.ph
  %.3 = phi i32 [ %.252, %31 ], [ %.4, %49 ], [ %.252, %23 ], [ %.252, %.lr.ph ]
  %51 = tail call ptr @readdir(ptr noundef nonnull %16) #9
  %.not48 = icmp eq ptr %51, null
  br i1 %.not48, label %._crit_edge, label %.lr.ph, !llvm.loop !8

._crit_edge:                                      ; preds = %50, %.preheader
  %.2.lcssa = phi i32 [ %.039.ph, %.preheader ], [ %.3, %50 ]
  %52 = tail call i32 @closedir(ptr noundef nonnull %16)
  %53 = getelementptr inbounds nuw i8, ptr %13, i64 1
  br i1 %.not, label %54, label %.outer

54:                                               ; preds = %._crit_edge
  tail call void @free(ptr noundef %.042) #9
  %55 = sext i32 %.2.lcssa to i64
  %56 = getelementptr inbounds [257 x ptr], ptr @libHandles, i64 0, i64 %55
  store ptr null, ptr %56, align 8, !tbaa !6
  ret void
}